target datalayout = "e-m:e-p270:32:32-p271:32:32-p272:64:64-i64:64-i128:128-f80:128-n8:16:32:64-S128"
target triple = "x86_64-pc-linux-gnu"

%class.Phase = type { i32, ptr }
%class.LibraryCallKit = type <{ %class.GraphKit.base, [4 x i8], ptr, ptr, i32, [4 x i8] }>
%class.GraphKit.base = type <{ ptr, %class.Phase, ptr, ptr, ptr, ptr, i32, [4 x i8], ptr, ptr, i32 }>
%class.GraphKit = type <{ ptr, %class.Phase, ptr, ptr, ptr, ptr, i32, [4 x i8], ptr, ptr, i32, [4 x i8] }>

@_ZN7TypeInt3POSE = external global ptr, align 8
@_ZN5ciEnv13_Object_klassE = external global ptr, align 8

; Function Attrs: mustprogress nounwind uwtable
define linkonce_odr hidden noundef ptr @_ZN10TypeOopPtr15make_from_klassEP7ciKlassN4Type17InterfaceHandlingE(ptr noundef %0, i32 noundef %1) #1 comdat align 2 {
  %3 = alloca ptr, align 8
  %4 = alloca i32, align 4
  store ptr %0, ptr %3, align 8
  store i32 %1, ptr %4, align 4
  %5 = load ptr, ptr %3, align 8
  %6 = load i32, ptr %4, align 4
  %7 = call noundef ptr @_ZN10TypeOopPtr22make_from_klass_commonEP7ciKlassbbN4Type17InterfaceHandlingE(ptr noundef %5, i1 noundef zeroext true, i1 noundef zeroext false, i32 noundef %6)
  ret ptr %7
}

; Function Attrs: mustprogress nounwind uwtable
define linkonce_odr hidden noundef ptr @_ZN5ciEnv12Object_klassEv(ptr noundef nonnull align 8 dereferenceable(1265) %0) #1 comdat align 2 {
  %2 = alloca ptr, align 8
  store ptr %0, ptr %2, align 8
  %3 = load ptr, ptr @_ZN5ciEnv13_Object_klassE, align 8
  ret ptr %3
}

; Function Attrs: mustprogress nounwind uwtable
define linkonce_odr hidden noundef ptr @_ZNK8GraphKit3envEv(ptr noundef nonnull align 8 dereferenceable(84) %0) #1 comdat align 2 {
  %2 = alloca ptr, align 8
  store ptr %0, ptr %2, align 8
  %3 = load ptr, ptr %2, align 8
  %4 = getelementptr inbounds %class.GraphKit, ptr %3, i32 0, i32 2
  %5 = load ptr, ptr %4, align 8
  ret ptr %5
}

; Function Attrs: mustprogress nounwind uwtable
define linkonce_odr hidden void @_ZN14LibraryCallKit10set_resultEP4Node(ptr noundef nonnull align 8 dereferenceable(108) %0, ptr noundef %1) #1 comdat align 2 {
  %3 = alloca ptr, align 8
  %4 = alloca ptr, align 8
  store ptr %0, ptr %3, align 8
  store ptr %1, ptr %4, align 8
  %5 = load ptr, ptr %3, align 8
  %6 = load ptr, ptr %4, align 8
  %7 = getelementptr inbounds %class.LibraryCallKit, ptr %5, i32 0, i32 3
  store ptr %6, ptr %7, align 8
  ret void
}

; Function Attrs: mustprogress nounwind uwtable
define hidden noundef ptr @_ZN14LibraryCallKit21scopedValueCache_typeEv(ptr noundef nonnull align 8 dereferenceable(108) %0) #1 align 2 {
  %2 = alloca ptr, align 8
  %3 = alloca ptr, align 8
  %4 = alloca ptr, align 8
  %5 = alloca ptr, align 8
  %6 = alloca i8, align 1
  %7 = alloca ptr, align 8
  store ptr %0, ptr %2, align 8
  %8 = load ptr, ptr %2, align 8
  %9 = call noundef ptr @_ZNK8GraphKit3envEv(ptr noundef nonnull align 8 dereferenceable(84) %8)
  %10 = call noundef ptr @_ZN5ciEnv12Object_klassEv(ptr noundef nonnull align 8 dereferenceable(1265) %9)
  %11 = call noundef ptr @_ZN15ciObjArrayKlass4makeEP7ciKlass(ptr noundef %10)
  store ptr %11, ptr %3, align 8
  %12 = call noundef ptr @_ZNK8GraphKit3envEv(ptr noundef nonnull align 8 dereferenceable(84) %8)
  %13 = call noundef ptr @_ZN5ciEnv12Object_klassEv(ptr noundef nonnull align 8 dereferenceable(1265) %12)
  %14 = call noundef ptr @_ZN10TypeOopPtr15make_from_klassEP7ciKlassN4Type17InterfaceHandlingE(ptr noundef %13, i32 noundef 1)
  store ptr %14, ptr %4, align 8
  %15 = load ptr, ptr %4, align 8
  %16 = load ptr, ptr @_ZN7TypeInt3POSE, align 8
  %17 = call noundef ptr @_ZN7TypeAry4makeEPK4TypePK7TypeIntb(ptr noundef %15, ptr noundef %16, i1 noundef zeroext false)
  store ptr %17, ptr %5, align 8
  %18 = load ptr, ptr %4, align 8
  %19 = load ptr, ptr %18, align 8
  %20 = getelementptr inbounds ptr, ptr %19, i64 34
  %21 = load ptr, ptr %20, align 8
  %22 = call noundef zeroext i1 %21(ptr noundef nonnull align 8 dereferenceable(80) %18)
  %23 = zext i1 %22 to i8
  store i8 %23, ptr %6, align 1
  %24 = load ptr, ptr %5, align 8
  %25 = load ptr, ptr %3, align 8
  %26 = load i8, ptr %6, align 1
  %27 = trunc i8 %26 to i1
  %28 = call noundef ptr @_ZN10TypeAryPtr4makeEN7TypePtr3PTREPK7TypeAryP7ciKlassbiiPKS0_i(i32 noundef 5, ptr noundef %24, ptr noundef %25, i1 noundef zeroext %27, i32 noundef 0, i32 noundef 0, ptr noundef null, i32 noundef 2147483647)
  store ptr %28, ptr %7, align 8
  %29 = load ptr, ptr %7, align 8
  ret ptr %29
}

; Function Attrs: mustprogress nounwind uwtable
define hidden noundef zeroext i1 @_ZN14LibraryCallKit30inline_native_scopedValueCacheEv(ptr noundef nonnull align 8 dereferenceable(108) %0) #1 align 2 {
  %2 = alloca ptr, align 8
  %3 = alloca ptr, align 8
  %4 = alloca ptr, align 8
  store ptr %0, ptr %2, align 8
  %5 = load ptr, ptr %2, align 8
  %6 = call noundef ptr @_ZN14LibraryCallKit23scopedValueCache_helperEv(ptr noundef nonnull align 8 dereferenceable(108) %5)
  store ptr %6, ptr %3, align 8
  %7 = call noundef ptr @_ZN14LibraryCallKit21scopedValueCache_typeEv(ptr noundef nonnull align 8 dereferenceable(108) %5)
  store ptr %7, ptr %4, align 8
  %8 = load ptr, ptr %3, align 8
  %9 = load ptr, ptr %4, align 8
  %10 = call noundef ptr @_ZN8GraphKit11access_loadEP4NodePK4Type9BasicTypem(ptr noundef nonnull align 8 dereferenceable(84) %5, ptr noundef %8, ptr noundef %9, i8 noundef zeroext 12, i64 noundef 524288)
  call void @_ZN14LibraryCallKit10set_resultEP4Node(ptr noundef nonnull align 8 dereferenceable(108) %5, ptr noundef %10)
  ret i1 true
}