; Function Attrs: mustprogress nounwind uwtable
define hidden noundef zeroext i1 @_ZN14LibraryCallKit30inline_native_scopedValueCacheEv(ptr noundef nonnull align 8 dereferenceable(108) %0) local_unnamed_addr #0 align 2 {
  %2 = tail call noundef ptr @_ZN14LibraryCallKit23scopedValueCache_helperEv(ptr noundef nonnull align 8 dereferenceable(108) %0)
  %3 = load ptr, ptr @_ZN5ciEnv13_Object_klassE, align 8
  %4 = tail call noundef ptr @_ZN15ciObjArrayKlass4makeEP7ciKlass(ptr noundef %3) #13
  %5 = load ptr, ptr @_ZN5ciEnv13_Object_klassE, align 8
  %6 = tail call noundef ptr @_ZN10TypeOopPtr22make_from_klass_commonEP7ciKlassbbN4Type17InterfaceHandlingE(ptr noundef %5, i1 noundef zeroext true, i1 noundef zeroext false, i32 noundef 1) #13
  %7 = load ptr, ptr @_ZN7TypeInt3POSE, align 8
  %8 = tail call noundef ptr @_ZN7TypeAry4makeEPK4TypePK7TypeIntb(ptr noundef %6, ptr noundef %7, i1 noundef zeroext false) #13
  %9 = load ptr, ptr %6, align 8
  %10 = getelementptr inbounds i8, ptr %9, i64 272
  %11 = load ptr, ptr %10, align 8
  %12 = tail call noundef zeroext i1 %11(ptr noundef nonnull align 8 dereferenceable(80) %6) #13
  %13 = tail call noundef ptr @_ZN10TypeAryPtr4makeEN7TypePtr3PTREPK7TypeAryP7ciKlassbiiPKS0_i(i32 noundef 5, ptr noundef %8, ptr noundef %4, i1 noundef zeroext %12, i32 noundef 0, i32 noundef 0, ptr noundef null, i32 noundef 2147483647) #13
  %14 = tail call noundef ptr @_ZN8GraphKit11access_loadEP4NodePK4Type9BasicTypem(ptr noundef nonnull align 8 dereferenceable(84) %0, ptr noundef %2, ptr noundef %13, i8 noundef zeroext 12, i64 noundef 524288) #13
  %15 = getelementptr inbounds i8, ptr %0, i64 96
  store ptr %14, ptr %15, align 8
  ret i1 true
}